target datalayout = "e-m:e-p270:32:32-p271:32:32-p272:64:64-i64:64-i128:128-f80:128-n8:16:32:64-S128"
target triple = "x86_64-pc-linux-gnu"

%"struct.base::trace_event::StackFrame" = type { i32, ptr }
%"struct.base::trace_event::Backtrace" = type { [48 x %"struct.base::trace_event::StackFrame"], i64 }
%"struct.base::trace_event::AllocationContext" = type { %"struct.base::trace_event::Backtrace", ptr }
%"struct.base_hash::hash.0" = type { i8 }

; Function Attrs: mustprogress uwtable
define noundef i64 @_ZNK9base_hash4hashIN4base11trace_event9BacktraceEEclERKS3_(ptr noundef nonnull align 1 dereferenceable(1) %0, ptr noundef nonnull align 8 dereferenceable(776) %1) #1 align 2 {
  %3 = alloca ptr, align 8
  %4 = alloca ptr, align 8
  %5 = alloca [48 x ptr], align 16
  %6 = alloca i64, align 8
  store ptr %0, ptr %3, align 8, !tbaa !30
  store ptr %1, ptr %4, align 8, !tbaa !11
  call void @llvm.lifetime.start.p0(i64 384, ptr %5) #7
  call void @llvm.lifetime.start.p0(i64 8, ptr %6) #7
  store i64 0, ptr %6, align 8, !tbaa !24
  br label %7

7:                                                ; preds = %23, %2
  %8 = load i64, ptr %6, align 8, !tbaa !24
  %9 = load ptr, ptr %4, align 8, !tbaa !11
  %10 = getelementptr inbounds nuw %"struct.base::trace_event::Backtrace", ptr %9, i32 0, i32 1
  %11 = load i64, ptr %10, align 8, !tbaa !13
  %12 = icmp ne i64 %8, %11
  br i1 %12, label %14, label %13

13:                                               ; preds = %7
  call void @llvm.lifetime.end.p0(i64 8, ptr %6) #7
  br label %26

14:                                               ; preds = %7
  %15 = load ptr, ptr %4, align 8, !tbaa !11
  %16 = getelementptr inbounds nuw %"struct.base::trace_event::Backtrace", ptr %15, i32 0, i32 0
  %17 = load i64, ptr %6, align 8, !tbaa !24
  %18 = getelementptr inbounds nuw [48 x %"struct.base::trace_event::StackFrame"], ptr %16, i64 0, i64 %17
  %19 = getelementptr inbounds nuw %"struct.base::trace_event::StackFrame", ptr %18, i32 0, i32 1
  %20 = load ptr, ptr %19, align 8, !tbaa !8
  %21 = load i64, ptr %6, align 8, !tbaa !24
  %22 = getelementptr inbounds nuw [48 x ptr], ptr %5, i64 0, i64 %21
  store ptr %20, ptr %22, align 8, !tbaa !29
  br label %23

23:                                               ; preds = %14
  %24 = load i64, ptr %6, align 8, !tbaa !24
  %25 = add i64 %24, 1
  store i64 %25, ptr %6, align 8, !tbaa !24
  br label %7, !llvm.loop !32

26:                                               ; preds = %13
  %27 = getelementptr inbounds [48 x ptr], ptr %5, i64 0, i64 0
  %28 = load ptr, ptr %4, align 8, !tbaa !11
  %29 = getelementptr inbounds nuw %"struct.base::trace_event::Backtrace", ptr %28, i32 0, i32 1
  %30 = load i64, ptr %29, align 8, !tbaa !13
  %31 = mul i64 %30, 8
  %32 = trunc i64 %31 to i32
  %33 = sext i32 %32 to i64
  %34 = call noundef i32 @_ZN4base13SuperFastHashEPKcm(ptr noundef %27, i64 noundef %33)
  %35 = zext i32 %34 to i64
  call void @llvm.lifetime.end.p0(i64 384, ptr %5) #7
  ret i64 %35
}

; Function Attrs: mustprogress uwtable
define noundef i64 @_ZNK9base_hash4hashIN4base11trace_event17AllocationContextEEclERKS3_(ptr noundef nonnull align 1 dereferenceable(1) %0, ptr noundef nonnull align 8 dereferenceable(784) %1) #1 align 2 {
  %3 = alloca ptr, align 8
  %4 = alloca ptr, align 8
  %5 = alloca i64, align 8
  %6 = alloca %"struct.base_hash::hash.0", align 1
  %7 = alloca i64, align 8
  store ptr %0, ptr %3, align 8, !tbaa !34
  store ptr %1, ptr %4, align 8, !tbaa !16
  call void @llvm.lifetime.start.p0(i64 8, ptr %5) #7
  call void @llvm.lifetime.start.p0(i64 1, ptr %6) #7
  %8 = load ptr, ptr %4, align 8, !tbaa !16
  %9 = getelementptr inbounds nuw %"struct.base::trace_event::AllocationContext", ptr %8, i32 0, i32 0
  %10 = call noundef i64 @_ZNK9base_hash4hashIN4base11trace_event9BacktraceEEclERKS3_(ptr noundef nonnull align 1 dereferenceable(1) %6, ptr noundef nonnull align 8 dereferenceable(776) %9)
  call void @llvm.lifetime.end.p0(i64 1, ptr %6) #7
  store i64 %10, ptr %5, align 8, !tbaa !24
  call void @llvm.lifetime.start.p0(i64 8, ptr %7) #7
  %11 = load ptr, ptr %4, align 8, !tbaa !16
  %12 = getelementptr inbounds nuw %"struct.base::trace_event::AllocationContext", ptr %11, i32 0, i32 1
  %13 = load ptr, ptr %12, align 8, !tbaa !18
  %14 = ptrtoint ptr %13 to i64
  %15 = mul i64 %14, 2654435761
  store i64 %15, ptr %7, align 8, !tbaa !24
  %16 = load i64, ptr %5, align 8, !tbaa !24
  %17 = mul i64 %16, 3
  %18 = load i64, ptr %7, align 8, !tbaa !24
  %19 = add i64 %17, %18
  call void @llvm.lifetime.end.p0(i64 8, ptr %7) #7
  call void @llvm.lifetime.end.p0(i64 8, ptr %5) #7
  ret i64 %19
}