; Function Attrs: mustprogress uwtable
define noundef i64 @_ZNK9base_hash4hashIN4base11trace_event17AllocationContextEEclERKS3_(ptr noundef nonnull readnone align 1 captures(none) dereferenceable(1) %0, ptr noundef nonnull readonly align 8 captures(none) dereferenceable(784) %1) local_unnamed_addr #2 align 2 {
  %3 = alloca [48 x ptr], align 16
  call void @llvm.lifetime.start.p0(i64 384, ptr nonnull %3) #7
  %4 = getelementptr inbounds nuw i8, ptr %1, i64 768
  %5 = load i64, ptr %4, align 8, !tbaa !9
  %.not7.i = icmp eq i64 %5, 0
  br i1 %.not7.i, label %_ZNK9base_hash4hashIN4base11trace_event9BacktraceEEclERKS3_.exit, label %.lr.ph.i

.lr.ph.i:                                         ; preds = %2, %.lr.ph.i
  %.08.i = phi i64 [ %9, %.lr.ph.i ], [ 0, %2 ]
  %6 = getelementptr inbounds nuw [48 x %"struct.base::trace_event::StackFrame"], ptr %1, i64 0, i64 %.08.i, i32 1
  %7 = load ptr, ptr %6, align 8, !tbaa !3
  %8 = getelementptr inbounds nuw [48 x ptr], ptr %3, i64 0, i64 %.08.i
  store ptr %7, ptr %8, align 8, !tbaa !20
  %9 = add nuw i64 %.08.i, 1
  %.not.i = icmp eq i64 %9, %5
  br i1 %.not.i, label %_ZNK9base_hash4hashIN4base11trace_event9BacktraceEEclERKS3_.exit, label %.lr.ph.i, !llvm.loop !21

_ZNK9base_hash4hashIN4base11trace_event9BacktraceEEclERKS3_.exit: ; preds = %.lr.ph.i, %2
  %.tr.i = trunc i64 %5 to i32
  %10 = shl i32 %.tr.i, 3
  %11 = sext i32 %10 to i64
  %12 = call noundef i32 @_ZN4base13SuperFastHashEPKcm(ptr noundef nonnull %3, i64 noundef %11)
  %13 = zext i32 %12 to i64
  call void @llvm.lifetime.end.p0(i64 384, ptr nonnull %3) #7
  %14 = getelementptr inbounds nuw i8, ptr %1, i64 776
  %15 = load ptr, ptr %14, align 8, !tbaa !14
  %16 = ptrtoint ptr %15 to i64
  %17 = mul i64 %16, 2654435761
  %18 = mul nuw nsw i64 %13, 3
  %19 = add i64 %17, %18
  ret i64 %19
}